; Function Attrs: mustprogress uwtable
define void @_ZN11OpenImageIO6v3_1_08ArgParseC2Ev(ptr noundef nonnull align 8 dereferenceable(16) %0) unnamed_addr #5 align 2 personality ptr @__gxx_personality_v0 {
  %2 = tail call noalias noundef nonnull dereferenceable(392) ptr @_Znwm(i64 noundef 392) #41
  invoke void @_ZN11OpenImageIO6v3_1_08ArgParse4ImplC2ERS1_iPPKc(ptr noundef nonnull align 8 dereferenceable(392) %2, ptr noundef nonnull align 8 dereferenceable(16) %0, i32 noundef 0, ptr noundef null)
          to label %3 unwind label %5

3:                                                ; preds = %1
  store ptr %2, ptr %0, align 8, !tbaa !107
  %4 = getelementptr inbounds nuw i8, ptr %0, i64 8
  tail call void @_ZNSt14__shared_countILN9__gnu_cxx12_Lock_policyE2EEC2IPN11OpenImageIO6v3_1_08ArgParse4ImplEEET_(ptr noundef nonnull align 8 dereferenceable(8) %4, ptr noundef nonnull %2)
  ret void

5:                                                ; preds = %1
  %6 = landingpad { ptr, i32 }
          cleanup
  tail call void @_ZdlPvm(ptr noundef nonnull %2, i64 noundef 392) #37
  resume { ptr, i32 } %6
}